; Function Attrs: mustprogress nofree nounwind willreturn memory(write, inaccessiblemem: readwrite) uwtable
define internal range(i32 0, 2) i32 @b64_new(ptr noundef writeonly captures(none) %0) #2 {
  %calloc = tail call dereferenceable_or_null(2652) ptr @calloc(i64 1, i64 2652)
  %2 = icmp eq ptr %calloc, null
  br i1 %2, label %8, label %3

3:                                                ; preds = %1
  %4 = getelementptr inbounds nuw i8, ptr %calloc, i64 24
  store i32 1, ptr %4, align 4, !tbaa !27
  %5 = getelementptr inbounds nuw i8, ptr %calloc, i64 20
  store i32 1, ptr %5, align 4, !tbaa !28
  %6 = getelementptr inbounds nuw i8, ptr %0, i64 24
  store i32 1, ptr %6, align 8, !tbaa !38
  %7 = getelementptr inbounds nuw i8, ptr %0, i64 48
  store ptr %calloc, ptr %7, align 8, !tbaa !6
  br label %8

8:                                                ; preds = %1, %3
  %.0 = phi i32 [ 1, %3 ], [ 0, %1 ]
  ret i32 %.0
}